((lp1
S'Africa'
p2
aS'All'
p3
aS'American'
p4
aS'And'
p5
aS'Are'
p6
aS'Aren\xe2\x80\x99t'
p7
aS'As'
p8
aS'At'
p9
aS'Before'
p10
aS'Big'
p11
aS'Brooklyn'
p12
aS'Brooklyn.'
p13
aS'But'
p14
aS'But,'
p15
aS'Can'
p16
aS'Canary'
p17
aS'Charlie'
p18
aS'Chicago.\xe2\x80\x9d'
p19
aS'Cincinnati'
p20
aS'Cleveland.\xe2\x80\x9d'
p21
aS'Coast'
p22
aS'Cobre.'
p23
aS'Come'
p24
aS'Cuban'
p25
aS'Detroit'
p26
aS'DiMaggio'
p27
aS'DiMaggio.\xe2\x80\x9d'
p28
aS'Dick'
p29
aS'Do'
p30
aS'Don\xe2\x80\x99t'
p31
aS'Durocher'
p32
aS'Each'
p33
aS'Eat'
p34
aS'Ernest'
p35
aS'Every'
p36
aS'Everything'
p37
aS'First'
p38
aS'For'
p39
aS'From'
p40
aS'Go'
p41
aS'Gonzalez?\xe2\x80\x9d'
p42
aS'Gulf'
p43
aS'Hard'
p44
aS'Hatuey'
p45
aS'Havana.'
p46
aS'Have'
p47
aS'Haven\xe2\x80\x99t'
p48
aS'He'
p49
aS'Heart'
p50
aS'Hemingway'
p51
aS'Here'
p52
aS'He\xe2\x80\x99ll'
p53
aS'He\xe2\x80\x99s'
p54
aS'His'
p55
aS'How'
p56
aS'I'
aS'I,\xe2\x80\x9d'
p57
aS'If'
p58
aS'In'
p59
aS'Indians'
p60
aS'Is'
p61
aS'Islands'
p62
aS'Islands.'
p63
aS'It'
p64
aS'I\xe2\x80\x99d'
p65
aS'I\xe2\x80\x99ll'
p66
aS'I\xe2\x80\x99m'
p67
aS'J.'
p68
aS'Jesus'
p69
aS'John'
p70
aS'Jota'
p71
aS'Just'
p72
aS'League'
p73
aS'Leagues'
p74
aS'Luque'
p75
aS'Make'
p76
aS'Man'
p77
aS'Manolin,\xe2\x80\x9d'
p78
aS'Max'
p79
aS'May'
p80
aS'May.\xe2\x80\x9d'
p81
aS'Maybe'
p82
aS'McGraw.\xe2\x80\x9d'
p83
aS'Mike'
p84
aS'Mosquito'
p85
aS'Most'
p86
aS'My'
p87
aS'No'
p88
aS'Now'
p89
aS'October'
p90
aS'Old'
p91
aS'On'
p92
aS'Once'
p93
aS'One'
p94
aS'Only'
p95
aS'Or'
p96
aS'Others'
p97
aS'Others,'
p98
aS'Perkins'
p99
aS'Philadelphia'
p100
aS'Please'
p101
aS'Portuguese'
p102
aS'Reds'
p103
aS'Rogelio'
p104
aS'Sacred'
p105
aS'Sargasso'
p106
aS'Sax'
p107
aS'Sea'
p108
aS'September'
p109
aS'September.\xe2\x80\x9d'
p110
aS'She'
p111
aS'Shribner'
p112
aS'Sisler'
p113
aS'Sisler\xe2\x80\x99s'
p114
aS'Some'
p115
aS'Sometimes'
p116
aS'Spanish'
p117
aS'Stay'
p118
aS'Stream'
p119
aS'Stream.'
p120
aS'Terrace'
p121
aS'Terrace.'
p122
aS'Terrace.\xe2\x80\x9d'
p123
aS'Terrace?\xe2\x80\x9d'
p124
aS'That'
p125
aS'That\xe2\x80\x99s'
p126
aS'The'
p127
aS'Then'
p128
aS'There'
p129
aS'These'
p130
aS'They'
p131
aS'Think'
p132
aS'This'
p133
aS'Those'
p134
aS'Tigers'
p135
aS'To'
p136
aS'Today'
p137
aS'Tomorrow'
p138
aS'Using'
p139
aS'Usually'
p140
aS'Va,\xe2\x80\x9d'
p141
aS'Virgin'
p142
aS'We'
p143
aS'We\xe2\x80\x99ve'
p144
aS'When'
p145
aS'Where'
p146
aS'White'
p147
aS'Who'
p148
aS'Why'
p149
aS'Will'
p150
aS'Yankees'
p151
aS'Yet'
p152
aS'You'
p153
aS'a'
aS'about'
p154
aS'above'
p155
aS'across'
p156
aS'affects'
p157
aS'after'
p158
aS'again'
p159
aS'again,'
p160
aS'again.'
p161
aS'again.\xe2\x80\x9d'
p162
aS'against'
p163
aS'age'
p164
aS'age.\xe2\x80\x9d'
p165
aS'ago.'
p166
aS'agonizing'
p167
aS'agreed.'
p168
aS'agua'
p169
aS'ahead'
p170
aS'aid.\xe2\x80\x9d'
p171
aS'air'
p172
aS'air,'
p173
aS'alarm'
p174
aS'albacore'
p175
aS'albacores,'
p176
aS'alive.\xe2\x80\x9d'
p177
aS'all'
p178
aS'all,'
p179
aS'all.'
p180
aS'almost'
p181
aS'alone'
p182
aS'alone,'
p183
aS'along'
p184
aS'alongside.'
p185
aS'aloud'
p186
aS'aloud,'
p187
aS'aloud.'
p188
aS'already'
p189
aS'already,\xe2\x80\x9d'
p190
aS'also'
p191
aS'although'
p192
aS'always'
p193
aS'am'
p194
aS'among'
p195
aS'an'
p196
aS'and'
p197
aS'and,'
p198
aS'angry.'
p199
aS'annoy.'
p200
aS'annulled'
p201
aS'another'
p202
aS'any'
p203
aS'anyone'
p204
aS'anything.\xe2\x80\x9d'
p205
aS'apart'
p206
aS'approached'
p207
aS'are'
p208
aS'arm'
p209
aS'armour-plating,'
p210
aS'arms'
p211
aS'army'
p212
aS'around'
p213
aS'as'
p214
aS'ask'
p215
aS'asked'
p216
aS'asked.'
p217
aS'asking'
p218
aS'asleep'
p219
aS'asleep.'
p220
aS'at'
p221
aS'ate'
p222
aS'attained'
p223
aS'attractiveness.'
p224
aS'away'
p225
aS'away.'
p226
aS'back'
p227
aS'back-swept'
p228
aS'back.'
p229
aS'back.\xe2\x80\x9d'
p230
aS'backed'
p231
aS'backs'
p232
aS'bad'
p233
aS'bad?\xe2\x80\x9d'
p234
aS'bait'
p235
aS'bait.'
p236
aS'baited'
p237
aS'baits'
p238
aS'baits,'
p239
aS'baits.'
p240
aS'ball'
p241
aS'bananas,'
p242
aS'banging'
p243
aS'bank'
p244
aS'bare'
p245
aS'bare-footed'
p246
aS'barefoot'
p247
aS'barefooted.'
p248
aS'baseball,'
p249
aS'baseball,\xe2\x80\x9d'
p250
aS'baseball.'
p251
aS'baseball.\xe2\x80\x9d'
p252
aS'baseball?\xe2\x80\x9d'
p253
aS'basket'
p254
aS'battle'
p255
aS'be'
p256
aS'beach'
p257
aS'beach.'
p258
aS'beaches'
p259
aS'beaches,'
p260
aS'beans'
p261
aS'beat'
p262
aS'beautiful'
p263
aS'beautiful.'
p264
aS'because'
p265
aS'bed'
p266
aS'bed,'
p267
aS'bed.'
p268
aS'been'
p269
aS'beer'
p270
aS'beer,'
p271
aS'beer,\xe2\x80\x9d'
p272
aS'beers.\xe2\x80\x9d'
p273
aS'before'
p274
aS'before;'
p275
aS'beg.\xe2\x80\x9d'
p276
aS'began'
p277
aS'behind'
p278
aS'belly'
p279
aS'below'
p280
aS'benevolent'
p281
aS'beside'
p282
aS'best'
p283
aS'best.\xe2\x80\x9d'
p284
aS'better'
p285
aS'better.\xe2\x80\x9d'
p286
aS'between'
p287
aS'big'
p288
aS'big,'
p289
aS'bight'
p290
aS'bird'
p291
aS'bird.'
p292
aS'birds'
p293
aS'birds,'
p294
aS'black'
p295
aS'blackness.'
p296
aS'bladder'
p297
aS'blades'
p298
aS'blanket'
p299
aS'blanket.'
p300
aS'blind.\xe2\x80\x9d'
p301
aS'block'
p302
aS'blood'
p303
aS'blotches'
p304
aS'blue'
p305
aS'boat'
p306
aS'boat.'
p307
aS'boat.\xe2\x80\x9d'
p308
aS'boat?\xe2\x80\x9d'
p309
aS'boats'
p310
aS'boats,'
p311
aS'boats.'
p312
aS'bodega,\xe2\x80\x9d'
p313
aS'body'
p314
aS'bolt'
p315
aS'bonito'
p316
aS'bored'
p317
aS'born'
p318
aS'borrow'
p319
aS'borrow.'
p320
aS'both'
p321
aS'bottle'
p322
aS'bottles,'
p323
aS'bottles.\xe2\x80\x9d'
p324
aS'bought'
p325
aS'bow'
p326
aS'bow.'
p327
aS'box'
p328
aS'box.\xe2\x80\x9d'
p329
aS'boy'
p330
aS'boy.'
p331
aS'boys'
p332
aS'boy\xe2\x80\x99s'
p333
aS'break'
p334
aS'breaking'
p335
aS'breeze'
p336
aS'breeze.'
p337
aS'brighter'
p338
aS'bring'
p339
aS'brings'
p340
aS'broke'
p341
aS'brought'
p342
aS'brown'
p343
aS'bubble'
p344
aS'bubbles'
p345
aS'budshields'
p346
aS'bulge'
p347
aS'bullet'
p348
aS'bumping'
p349
aS'buoys'
p350
aS'burst'
p351
aS'but'
p352
aS'butchered'
p353
aS'butchered.'
p354
aS'buy'
p355
aS'by'
p356
aS'call'
p357
aS'called'
p358
aS'came'
p359
aS'can'
p360
aS'cancer'
p361
aS'cannot'
p362
aS'cans'
p363
aS'can\xe2\x80\x99t'
p364
aS'capes'
p365
aS'carapaced'
p366
aS'care'
p367
aS'care.'
p368
aS'careful'
p369
aS'carried'
p370
aS'carry'
p371
aS'carrying'
p372
aS'cast'
p373
aS'catch'
p374
aS'cats'
p375
aS'caught'
p376
aS'chair'
p377
aS'chair,'
p378
aS'chance.'
p379
aS'charcoal.'
p380
aS'cheeks.'
p381
aS'cheerful'
p382
aS'cheerfully'
p383
aS'chopping'
p384
aS'churning'
p385
aS'circled'
p386
aS'circling'
p387
aS'circling.'
p388
aS'classic.'
p389
aS'clean'
p390
aS'clear,'
p391
aS'clearly'
p392
aS'climbed'
p393
aS'clock,\xe2\x80\x9d'
p394
aS'close'
p395
aS'closed'
p396
aS'clouds'
p397
aS'club'
p398
aS'clubbing'
p399
aS'clubbing.'
p400
aS'coast'
p401
aS'coffee'
p402
aS'coffee.'
p403
aS'coffee?\xe2\x80\x9d'
p404
aS'coil'
p405
aS'coiled'
p406
aS'coiled,'
p407
aS'coils'
p408
aS'coils.'
p409
aS'cold'
p410
aS'cold.'
p411
aS'cold.\xe2\x80\x9d'
p412
aS'colds'
p413
aS'color'
p414
aS'coloured'
p415
aS'come'
p416
aS'come,\xe2\x80\x9d'
p417
aS'comes'
p418
aS'coming'
p419
aS'commenced'
p420
aS'compact'
p421
aS'completely'
p422
aS'concentrations'
p423
aS'condensed'
p424
aS'condition'
p425
aS'confidence'
p426
aS'confident'
p427
aS'congregated'
p428
aS'considered'
p429
aS'container'
p430
aS'contempt'
p431
aS'contestant'
p432
aS'contests'
p433
aS'continued'
p434
aS'cook'
p435
aS'coral'
p436
aS'cords.'
p437
aS'corner'
p438
aS'correctly'
p439
aS'cot'
p440
aS'could'
p441
aS'courage'
p442
aS'course.\xe2\x80\x9d'
p443
aS'cove'
p444
aS'covered'
p445
aS'crazy,'
p446
aS'crazy,\xe2\x80\x9d'
p447
aS'creases'
p448
aS'credit'
p449
aS'crosswise'
p450
aS'crowded'
p451
aS'cruel'
p452
aS'cruel?'
p453
aS'cup'
p454
aS'current'
p455
aS'current,\xe2\x80\x9d'
p456
aS'current.'
p457
aS'curve'
p458
aS'cut'
p459
aS'cutting'
p460
aS'dark'
p461
aS'dark,'
p462
aS'dark.'
p463
aS'darkness'
p464
aS'darkness.'
p465
aS'day'
p466
aS'day.'
p467
aS'day.\xe2\x80\x9d'
p468
aS'day?'
p469
aS'day?\xe2\x80\x9d'
p470
aS'days'
p471
aS'days.'
p472
aS'deadly'
p473
aS'deck'
p474
aS'deep'
p475
aS'deep-creased'
p476
aS'deep.'
p477
aS'deepest'
p478
aS'defeat'
p479
aS'defeat.'
p480
aS'definitely'
p481
aS'delicate'
p482
aS'delicately'
p483
aS'delicately,'
p484
aS'depths'
p485
aS'depths.'
p486
aS'desert.'
p487
aS'desperately'
p488
aS'dew'
p489
aS'did'
p490
aS'did,'
p491
aS'didn\xe2\x80\x99t'
p492
aS'difference.'
p493
aS'different'
p494
aS'different,\xe2\x80\x9d'
p495
aS'difficult'
p496
aS'dip'
p497
aS'dipped'
p498
aS'dipping'
p499
aS'directions,'
p500
aS'dirt'
p501
aS'disgraceful'
p502
aS'distinguished'
p503
aS'dive'
p504
aS'do'
p505
aS'do.\xe2\x80\x9d'
p506
aS'does'
p507
aS'dollars'
p508
aS'dolphin'
p509
aS'dolphin,'
p510
aS'dolphin.\xe2\x80\x9d'
p511
aS'done'
p512
aS'don\xe2\x80\x99t'
p513
aS'door'
p514
aS'door.'
p515
aS'doorway?\xe2\x80\x9d'
p516
aS'dose'
p517
aS'doubted.\xe2\x80\x9d'
p518
aS'dove'
p519
aS'down'
p520
aS'down,'
p521
aS'down.'
p522
aS'drank'
p523
aS'dream'
p524
aS'dreamed'
p525
aS'dreaming'
p526
aS'dreams'
p527
aS'dressed'
p528
aS'drift'
p529
aS'drift,'
p530
aS'drifted'
p531
aS'drifted.'
p532
aS'drifting'
p533
aS'drinking.'
p534
aS'drives'
p535
aS'driving'
p536
aS'drop,'
p537
aS'dropped'
p538
aS'dropped.'
p539
aS'dropping'
p540
aS'drum'
p541
aS'dusk'
p542
aS'dying'
p543
aS'each'
p544
aS'early'
p545
aS'early?'
p546
aS'east'
p547
aS'east.'
p548
aS'easy'
p549
aS'easy.'
p550
aS'eat'
p551
aS'eat.'
p552
aS'eat.\xe2\x80\x9d'
p553
aS'eat?\xe2\x80\x9d'
p554
aS'eaten'
p555
aS'eating'
p556
aS'eating?\xe2\x80\x9d'
p557
aS'edge'
p558
aS'effort'
p559
aS'eggs'
p560
aS'eighty-fifth'
p561
aS'eighty-five'
p562
aS'eighty-five?'
p563
aS'eighty-five?\xe2\x80\x9d'
p564
aS'eighty-four'
p565
aS'eighty-seven'
p566
aS'either'
p567
aS'el'
p568
aS'elegance'
p569
aS'empty'
p570
aS'end'
p571
aS'enduring'
p572
aS'enemy.'
p573
aS'enough'
p574
aS'equal.\xe2\x80\x9d'
p575
aS'erosions'
p576
aS'escaping'
p577
aS'especially'
p578
aS'even'
p579
aS'evening'
p580
aS'evening.\xe2\x80\x9d'
p581
aS'ever'
p582
aS'every'
p583
aS'everything'
p584
aS'exact.'
p585
aS'exactly'
p586
aS'excellent'
p587
aS'excellent,\xe2\x80\x9d'
p588
aS'except'
p589
aS'explained.'
p590
aS'eyes'
p591
aS'eyes,'
p592
aS'eyes.'
p593
aS'eyes.\xe2\x80\x9d'
p594
aS'fable,'
p595
aS'face'
p596
aS'face.'
p597
aS'factory'
p598
aS'factory;'
p599
aS'faded'
p600
aS'faint'
p601
aS'faith'
p602
aS'faith.\xe2\x80\x9d'
p603
aS'fallen'
p604
aS'falsest'
p605
aS'far'
p606
aS'far.'
p607
aS'fast'
p608
aS'fast-moving'
p609
aS'fast.'
p610
aS'faster'
p611
aS'father'
p612
aS'father,'
p613
aS'father\xe2\x80\x99s'
p614
aS'fathoms'
p615
aS'fathoms.'
p616
aS'favours,'
p617
aS'fear'
p618
aS'fed'
p619
aS'feeding.'
p620
aS'feel'
p621
aS'feeling'
p622
aS'feet'
p623
aS'feet,'
p624
aS'feet.'
p625
aS'felt'
p626
aS'feminine'
p627
aS'fibered'
p628
aS'fiction'
p629
aS'fiction.'
p630
aS'fights,'
p631
aS'filaments'
p632
aS'finally'
p633
aS'find'
p634
aS'finding,'
p635
aS'fine'
p636
aS'finger'
p637
aS'finger,'
p638
aS'fingers'
p639
aS'fingers,'
p640
aS'fins'
p641
aS'fire?\xe2\x80\x9d'
p642
aS'firm'
p643
aS'first'
p644
aS'fish'
p645
aS'fish,'
p646
aS'fish,\xe2\x80\x9d'
p647
aS'fish.'
p648
aS'fish?\xe2\x80\x9d'
p649
aS'fished'
p650
aS'fisherman'
p651
aS'fisherman.'
p652
aS'fishermen'
p653
aS'fishermen,'
p654
aS'fishermen.'
p655
aS'fishermen.\xe2\x80\x9d'
p656
aS'fishing'
p657
aS'fishing,\xe2\x80\x9d'
p658
aS'fishless'
p659
aS'fitted'
p660
aS'five'
p661
aS'flag'
p662
aS'flat'
p663
aS'flattened,'
p664
aS'flecks'
p665
aS'flesh'
p666
aS'flight'
p667
aS'floated'
p668
aS'floating'
p669
aS'floats'
p670
aS'floor'
p671
aS'flour'
p672
aS'fly,'
p673
aS'flying'
p674
aS'fold'
p675
aS'folding'
p676
aS'followed'
p677
aS'fond'
p678
aS'foot'
p679
aS'foot,'
p680
aS'for'
p681
aS'for.'
p682
aS'force'
p683
aS'forced'
p684
aS'forefinger'
p685
aS'forks'
p686
aS'form'
p687
aS'formalized,'
p688
aS'forty'
p689
aS'forty-fathom'
p690
aS'forward'
p691
aS'forward.'
p692
aS'found'
p693
aS'four'
p694
aS'fourth'
p695
aS'free'
p696
aS'frequently'
p697
aS'fresh'
p698
aS'fresh.'
p699
aS'freshening'
p700
aS'fried'
p701
aS'friendly'
p702
aS'friends'
p703
aS'from'
p704
aS'from?\xe2\x80\x9d'
p705
aS'front,'
p706
aS'full'
p707
aS'fun'
p708
aS'furled'
p709
aS'furled,'
p710
aS'further'
p711
aS'gaff'
p712
aS'gamble,\xe2\x80\x9d'
p713
aS'gaunt'
p714
aS'gave'
p715
aS'gear'
p716
aS'gear.'
p717
aS'gelatinous'
p718
aS'gentle'
p719
aS'gently'
p720
aS'gently.'
p721
aS'get'
p722
aS'getting'
p723
aS'giant'
p724
aS'give'
p725
aS'give.'
p726
aS'given'
p727
aS'glare'
p728
aS'glass'
p729
aS'go'
p730
aS'go.'
p731
aS'goes'
p732
aS'going'
p733
aS'going?\xe2\x80\x9d'
p734
aS'gold'
p735
aS'golden'
p736
aS'gone'
p737
aS'gone,\xe2\x80\x9d'
p738
aS'gone.'
p739
aS'good'
p740
aS'good.'
p741
aS'good.\xe2\x80\x9d'
p742
aS'got'
p743
aS'got?\xe2\x80\x9d'
p744
aS'gotten'
p745
aS'gray'
p746
aS'great'
p747
aS'greatest'
p748
aS'greatest.\xe2\x80\x9d'
p749
aS'green'
p750
aS'green-sapped'
p751
aS'grippes'
p752
aS'guano'
p753
aS'had'
p754
aS'half-garland'
p755
aS'half.'
p756
aS'half.\xe2\x80\x9d'
p757
aS'hand'
p758
aS'hand,'
p759
aS'hand-forged'
p760
aS'hand.'
p761
aS'handling'
p762
aS'hands'
p763
aS'happen'
p764
aS'happen.'
p765
aS'happily'
p766
aS'happily.\xe2\x80\x9d'
p767
aS'happy'
p768
aS'happy.'
p769
aS'harbour'
p770
aS'harbours'
p771
aS'hard'
p772
aS'hard-braided'
p773
aS'hard.\xe2\x80\x9d'
p774
aS'harder'
p775
aS'harpoon'
p776
aS'harsh-spoken'
p777
aS'has'
p778
aS'hasn\xe2\x80\x99t'
p779
aS'hated'
p780
aS'haul'
p781
aS'hauled'
p782
aS'have'
p783
aS'have,\xe2\x80\x9d'
p784
aS'have.'
p785
aS'hawk-bills'
p786
aS'he'
p787
aS'he,'
p788
aS'head'
p789
aS'headed'
p790
aS'hear'
p791
aS'heard'
p792
aS'heart'
p793
aS'heartless'
p794
aS'heavy'
p795
aS'heavy,'
p796
aS'heavy.'
p797
aS'held'
p798
aS'help'
p799
aS'help,\xe2\x80\x9d'
p800
aS'her'
p801
aS'her.'
p802
aS'here'
p803
aS'here.\xe2\x80\x9d'
p804
aS'hides'
p805
aS'high'
p806
aS'higher'
p807
aS'higher,'
p808
aS'hills'
p809
aS'hills.'
p810
aS'him'
p811
aS'him,'
p812
aS'him.'
p813
aS'him.\xe2\x80\x9d'
p814
aS'himself'
p815
aS'himself.'
p816
aS'his'
p817
aS'hissing'
p818
aS'hit'
p819
aS'hits'
p820
aS'hoisted'
p821
aS'hold'
p822
aS'holding'
p823
aS'holes'
p824
aS'home'
p825
aS'home,\xe2\x80\x9d'
p826
aS'home.'
p827
aS'home.\xe2\x80\x9d'
p828
aS'hook'
p829
aS'hook,'
p830
aS'hook.'
p831
aS'hooked'
p832
aS'hope'
p833
aS'hoped'
p834
aS'horny'
p835
aS'horses'
p836
aS'hot'
p837
aS'hour.'
p838
aS'hours'
p839
aS'house'
p840
aS'how'
p841
aS'huge'
p842
aS'huge,'
p843
aS'humility.'
p844
aS'hundred'
p845
aS'hundred.'
p846
aS'hung'
p847
aS'hungry.\xe2\x80\x9d'
p848
aS'hunting,'
p849
aS'hurry'
p850
aS'hurt'
p851
aS'ice'
p852
aS'if'
p853
aS'immune'
p854
aS'imperceptible.'
p855
aS'in'
p856
aS'in.'
p857
aS'increased'
p858
aS'ineffectual'
p859
aS'ineffectually'
p860
aS'inferior.\xe2\x80\x9d'
p861
aS'inshore.'
p862
aS'inside'
p863
aS'into'
p864
aS'iridescent'
p865
aS'iridescent,'
p866
aS'is'
p867
aS'it'
p868
aS'it,'
p869
aS'it,\xe2\x80\x9d'
p870
aS'it.'
p871
aS'it.\xe2\x80\x9d'
p872
aS'its'
p873
aS'itself'
p874
aS'itself.'
p875
aS'ivy'
p876
aS'jack'
p877
aS'jacket'
p878
aS'jumping'
p879
aS'jumps'
p880
aS'just'
p881
aS'keep'
p882
aS'kept'
p883
aS'kicked'
p884
aS'killed'
p885
aS'kills'
p886
aS'kind'
p887
aS'kindness'
p888
aS'knees'
p889
aS'knees.'
p890
aS'knew'
p891
aS'knives'
p892
aS'know'
p893
aS'know,\xe2\x80\x9d'
p894
aS'know.'
p895
aS'know.\xe2\x80\x9d'
p896
aS'know?'
p897
aS'knows'
p898
aS'knows?'
p899
aS'la'
p900
aS'laid'
p901
aS'land'
p902
aS'land.'
p903
aS'language'
p904
aS'lashings'
p905
aS'last'
p906
aS'late'
p907
aS'later'
p908
aS'lay'
p909
aS'leader'
p910
aS'league,'
p911
aS'leaned'
p912
aS'leaning'
p913
aS'leaping'
p914
aS'least'
p915
aS'leave'
p916
aS'leave.'
p917
aS'leaves'
p918
aS'left'
p919
aS'left.'
p920
aS'length'
p921
aS'let'
p922
aS'letting'
p923
aS'level'
p924
aS'life'
p925
aS'lifted'
p926
aS'light'
p927
aS'light.\xe2\x80\x9d'
p928
aS'lightly'
p929
aS'lightly.'
p930
aS'like'
p931
aS'line'
p932
aS'line,'
p933
aS'line.'
p934
aS'lines'
p935
aS'lines,'
p936
aS'lions'
p937
aS'lists'
p938
aS'little'
p939
aS'live'
p940
aS'lived'
p941
aS'liver'
p942
aS'livers'
p943
aS'lives.\xe2\x80\x9d'
p944
aS'local'
p945
aS'loggerheads,'
p946
aS'lonely'
p947
aS'long'
p948
aS'long-winged'
p949
aS'longer'
p950
aS'longest'
p951
aS'look'
p952
aS'looked'
p953
aS'looking'
p954
aS'looking.\xe2\x80\x9d'
p955
aS'loop'
p956
aS'looped'
p957
aS'lose.\xe2\x80\x9d'
p958
aS'loss'
p959
aS'lost'
p960
aS'lottery'
p961
aS'loud'
p962
aS'love'
p963
aS'love-making,'
p964
aS'loved'
p965
aS'lovely.'
p966
aS'lovely?'
p967
aS'loving'
p968
aS'low'
p969
aS'luck'
p970
aS'luck,\xe2\x80\x9d'
p971
aS'lucky'
p972
aS'lucky.'
p973
aS'lunch.'
p974
aS'made'
p975
aS'magnificent'
p976
aS'make'
p977
aS'makes'
p978
aS'making'
p979
aS'mala'
p980
aS'mala,\xe2\x80\x9d'
p981
aS'man'
p982
aS'man,\xe2\x80\x9d'
p983
aS'man-of-war'
p984
aS'man.\xe2\x80\x9d'
p985
aS'man?\xe2\x80\x9d'
p986
aS'manager,'
p987
aS'manager,\xe2\x80\x9d'
p988
aS'manager.\xe2\x80\x9d'
p989
aS'many'
p990
aS'man\xe2\x80\x99s'
p991
aS'man\xe2\x80\x9d'
p992
aS'mar'
p993
aS'market'
p994
aS'marlin'
p995
aS'masculine.'
p996
aS'mast'
p997
aS'mast.'
p998
aS'masts'
p999
aS'may'
p1000
aS'maybe'
p1001
aS'me'
p1002
aS'me,'
p1003
aS'me.'
p1004
aS'me.\xe2\x80\x9d'
p1005
aS'means'
p1006
aS'meant'
p1007
aS'meat'
p1008
aS'medium-sized'
p1009
aS'men'
p1010
aS'men-of-war'
p1011
aS'metal'
p1012
aS'might'
p1013
aS'mile'
p1014
aS'milk'
p1015
aS'mind'
p1016
aS'mine'
p1017
aS'mistake.'
p1018
aS'moment'
p1019
aS'money,'
p1020
aS'money.\xe2\x80\x9d'
p1021
aS'month'
p1022
aS'month,'
p1023
aS'moon'
p1024
aS'moon.'
p1025
aS'more'
p1026
aS'more,\xe2\x80\x9d'
p1027
aS'more.'
p1028
aS'morning'
p1029
aS'morning.'
p1030
aS'morning.\xe2\x80\x9d'
p1031
aS'most'
p1032
aS'mother\xe2\x80\x99s'
p1033
aS'motionless.'
p1034
aS'motorboats,'
p1035
aS'mountains'
p1036
aS'mountains.'
p1037
aS'mouth'
p1038
aS'mouth.'
p1039
aS'movements'
p1040
aS'moving'
p1041
aS'moving,'
p1042
aS'much'
p1043
aS'must'
p1044
aS'my'
p1045
aS'myriad'
p1046
aS'mysticism'
p1047
aS'names'
p1048
aS'napkin'
p1049
aS'native'
p1050
aS'nearly'
p1051
aS'neat,'
p1052
aS'necessary,'
p1053
aS'necessary.'
p1054
aS'neck'
p1055
aS'neck.'
p1056
aS'need'
p1057
aS'needed'
p1058
aS'needless'
p1059
aS'net'
p1060
aS'net.\xe2\x80\x9d'
p1061
aS'net?\xe2\x80\x9d'
p1062
aS'never'
p1063
aS'new'
p1064
aS'newspaper'
p1065
aS'newspapers'
p1066
aS'next'
p1067
aS'night'
p1068
aS'no'
p1069
aS'nodded'
p1070
aS'noise'
p1071
aS'none'
p1072
aS'nor'
p1073
aS'normal.\xe2\x80\x9d'
p1074
aS'north'
p1075
aS'north-east.'
p1076
aS'not'
p1077
aS'not?\xe2\x80\x9d'
p1078
aS'nothing'
p1079
aS'nothing,'
p1080
aS'nothing.'
p1081
aS'novel'
p1082
aS'now'
p1083
aS'now,'
p1084
aS'now,\xe2\x80\x9d'
p1085
aS'now.'
p1086
aS'number,\xe2\x80\x9d'
p1087
aS'oak'
p1088
aS'oakum'
p1089
aS'oars'
p1090
aS'oars.'
p1091
aS'obey'
p1092
aS'occasional'
p1093
aS'occurrences,'
p1094
aS'ocean'
p1095
aS'ocean.'
p1096
aS'odour'
p1097
aS'of'
p1098
aS'off'
p1099
aS'off,'
p1100
aS'offer'
p1101
aS'oil'
p1102
aS'old'
p1103
aS'old,'
p1104
aS'old.\xe2\x80\x9d'
p1105
aS'older'
p1106
aS'on'
p1107
aS'on,\xe2\x80\x9d'
p1108
aS'on.'
p1109
aS'once?\xe2\x80\x9d'
p1110
aS'one'
p1111
aS'one.'
p1112
aS'ones'
p1113
aS'ones.'
p1114
aS'ones.\xe2\x80\x9d'
p1115
aS'only'
p1116
aS'onto'
p1117
aS'open'
p1118
aS'opened'
p1119
aS'or'
p1120
aS'ordeal:'
p1121
aS'order'
p1122
aS'orders'
p1123
aS'other'
p1124
aS'others'
p1125
aS'others,'
p1126
aS'ought'
p1127
aS'our'
p1128
aS'out'
p1129
aS'out,'
p1130
aS'out,\xe2\x80\x9d'
p1131
aS'out.'
p1132
aS'out.\xe2\x80\x9d'
p1133
aS'outside'
p1134
aS'over'
p1135
aS'overlapping'
p1136
aS'owner.\xe2\x80\x9d'
p1137
aS'painful.'
p1138
aS'palm'
p1139
aS'panic.'
p1140
aS'papa'
p1141
aS'paper'
p1142
aS'parents'
p1143
aS'park.\xe2\x80\x9d'
p1144
aS'part'
p1145
aS'patched'
p1146
aS'patches'
p1147
aS'peaks'
p1148
aS'pebbled'
p1149
aS'pencil,'
p1150
aS'people'
p1151
aS'perhaps'
p1152
aS'permanent'
p1153
aS'personal'
p1154
aS'phosphorescence'
p1155
aS'photograph'
p1156
aS'pick'
p1157
aS'picked'
p1158
aS'picture'
p1159
aS'pieces.'
p1160
aS'pillow,'
p1161
aS'pins'
p1162
aS'place'
p1163
aS'places'
p1164
aS'plank,'
p1165
aS'planking'
p1166
aS'planks,'
p1167
aS'plankton'
p1168
aS'play'
p1169
aS'played'
p1170
aS'playing'
p1171
aS'pleasant'
p1172
aS'plummets'
p1173
aS'pocket'
p1174
aS'point'
p1175
aS'point,'
p1176
aS'poison'
p1177
aS'poison.'
p1178
aS'poisonings'
p1179
aS'politely'
p1180
aS'poor'
p1181
aS'pop'
p1182
aS'pot'
p1183
aS'pounds.\xe2\x80\x9d'
p1184
aS'pounds?\xe2\x80\x9d'
p1185
aS'powerful'
p1186
aS'precision.'
p1187
aS'pressure'
p1188
aS'pride.'
p1189
aS'principal'
p1190
aS'prisms'
p1191
aS'probably'
p1192
aS'projected'
p1193
aS'projecting'
p1194
aS'proper'
p1195
aS'prove'
p1196
aS'proved'
p1197
aS'published,'
p1198
aS'pull'
p1199
aS'pull,'
p1200
aS'pulled'
p1201
aS'pulling'
p1202
aS'purple'
p1203
aS'purple,'
p1204
aS'purple.'
p1205
aS'push'
p1206
aS'put'
p1207
aS'putting'
p1208
aS'quick'
p1209
aS'quickly'
p1210
aS'quietly'
p1211
aS'quite'
p1212
aS'radios'
p1213
aS'raised'
p1214
aS'ran'
p1215
aS'rather'
p1216
aS'reached'
p1217
aS'read'
p1218
aS'ready'
p1219
aS'ready.'
p1220
aS'ready.\xe2\x80\x9d'
p1221
aS'ready?'
p1222
aS'really'
p1223
aS'really,'
p1224
aS'record?\xe2\x80\x9d'
p1225
aS'red'
p1226
aS'reflection'
p1227
aS'relentless,'
p1228
aS'relics'
p1229
aS'remember'
p1230
aS'remember,\xe2\x80\x9d'
p1231
aS'remember.'
p1232
aS'remember?\xe2\x80\x9d'
p1233
aS'remembered'
p1234
aS'remembers'
p1235
aS'removed,'
p1236
aS'reserve'
p1237
aS'resolution.\xe2\x80\x9d'
p1238
aS'respected'
p1239
aS'rest'
p1240
aS'rice'
p1241
aS'rice,'
p1242
aS'rich'
p1243
aS'riding'
p1244
aS'rigged'
p1245
aS'right'
p1246
aS'right.'
p1247
aS'righted'
p1248
aS'ring'
p1249
aS'rise.'
p1250
aS'rises.'
p1251
aS'rising'
p1252
aS'road'
p1253
aS'road,'
p1254
aS'road.'
p1255
aS'roadsteads'
p1256
aS'roar'
p1257
aS'robber'
p1258
aS'rocks,'
p1259
aS'rolled'
p1260
aS'rolls'
p1261
aS'room'
p1262
aS'rope'
p1263
aS'rose'
p1264
aS'rough'
p1265
aS'row'
p1266
aS'rowed'
p1267
aS'rowed.'
p1268
aS'rowing'
p1269
aS'rowing.'
p1270
aS'royal'
p1271
aS'run'
p1272
aS'runner'
p1273
aS'sacks'
p1274
aS'sad'
p1275
aS'sad.'
p1276
aS'said'
p1277
aS'said,'
p1278
aS'said,\xe2\x80\x9d'
p1279
aS'said.'
p1280
aS'sail'
p1281
aS'salao,'
p1282
aS'salt'
p1283
aS'salting.'
p1284
aS'same'
p1285
aS'sand'
p1286
aS'sardine'
p1287
aS'sardines'
p1288
aS'sardines,\xe2\x80\x9d'
p1289
aS'sardines.'
p1290
aS'sardines.\xe2\x80\x9d'
p1291
aS'sardines?'
p1292
aS'sardine\xe2\x80\x99s'
p1293
aS'sat'
p1294
aS'saw'
p1295
aS'say'
p1296
aS'say.\xe2\x80\x9d'
p1297
aS'scars'
p1298
aS'scattering'
p1299
aS'scent'
p1300
aS'school'
p1301
aS'school,'
p1302
aS'schools'
p1303
aS'sea'
p1304
aS'sea.'
p1305
aS'second'
p1306
aS'see'
p1307
aS'seen'
p1308
aS'seen.'
p1309
aS'seen.\xe2\x80\x9d'
p1310
aS'sell'
p1311
aS'sent'
p1312
aS'serve'
p1313
aS'served'
p1314
aS'set'
p1315
aS'set.'
p1316
aS'sets'
p1317
aS'seven'
p1318
aS'seventy-five'
p1319
aS'sewed'
p1320
aS'shack'
p1321
aS'shack.'
p1322
aS'shade'
p1323
aS'shades'
p1324
aS'shaft.'
p1325
aS'shank'
p1326
aS'shape'
p1327
aS'shaped,'
p1328
aS'share'
p1329
aS'shark'
p1330
aS'sharks'
p1331
aS'sharply'
p1332
aS'sharply.'
p1333
aS'she'
p1334
aS'sheet.'
p1335
aS'shelf'
p1336
aS'shifts.'
p1337
aS'ship'
p1338
aS'shipped'
p1339
aS'shirt'
p1340
aS'shirt.'
p1341
aS'shiver'
p1342
aS'shivering'
p1343
aS'shoes'
p1344
aS'shone'
p1345
aS'shore'
p1346
aS'shore,'
p1347
aS'short'
p1348
aS'should'
p1349
aS'shoulder'
p1350
aS'shoulder.'
p1351
aS'shoulders'
p1352
aS'shoulders,'
p1353
aS'shoulders.'
p1354
aS'show'
p1355
aS'showed'
p1356
aS'shows'
p1357
aS'shrimp'
p1358
aS'shuddering,'
p1359
aS'shut'
p1360
aS'shut.'
p1361
aS'shy,'
p1362
aS'side'
p1363
aS'sides'
p1364
aS'sideways'
p1365
aS'sifting'
p1366
aS'sight'
p1367
aS'sign'
p1368
aS'silent'
p1369
aS'silver'
p1370
aS'simple'
p1371
aS'simple,'
p1372
aS'simply'
p1373
aS'since'
p1374
aS'sit'
p1375
aS'sitting'
p1376
aS'six'
p1377
aS'sixty'
p1378
aS'skiff'
p1379
aS'skiff,'
p1380
aS'skin'
p1381
aS'skinned'
p1382
aS'sky'
p1383
aS'slanting'
p1384
aS'slapping'
p1385
aS'sleep'
p1386
aS'sleep.'
p1387
aS'sleepy'
p1388
aS'slept'
p1389
aS'slid'
p1390
aS'slight'
p1391
aS'slimy'
p1392
aS'slip'
p1393
aS'slipping'
p1394
aS'slowly'
p1395
aS'slowly.'
p1396
aS'smacks'
p1397
aS'small'
p1398
aS'smell'
p1399
aS'smelled'
p1400
aS'smelling'
p1401
aS'smiled.'
p1402
aS'snow'
p1403
aS'snow-capped'
p1404
aS'so'
p1405
aS'so.'
p1406
aS'so.\xe2\x80\x9d'
p1407
aS'soap'
p1408
aS'soared'
p1409
aS'softly'
p1410
aS'softly,'
p1411
aS'sold'
p1412
aS'soles'
p1413
aS'solid'
p1414
aS'some'
p1415
aS'some.\xe2\x80\x9d'
p1416
aS'some?\xe2\x80\x9d'
p1417
aS'someone'
p1418
aS'something'
p1419
aS'something,\xe2\x80\x9d'
p1420
aS'sometimes'
p1421
aS'somewhere.'
p1422
aS'son.'
p1423
aS'soon'
p1424
aS'sores'
p1425
aS'sorry'
p1426
aS'sorry.\xe2\x80\x9d'
p1427
aS'sort'
p1428
aS'sorts'
p1429
aS'sound'
p1430
aS'spare'
p1431
aS'speak'
p1432
aS'species'
p1433
aS'speed'
p1434
aS'speed,'
p1435
aS'spoke'
p1436
aS'spoons'
p1437
aS'spread'
p1438
aS'springs'
p1439
aS'spurt'
p1440
aS'square'
p1441
aS'squid'
p1442
aS'staggering'
p1443
aS'staring'
p1444
aS'started'
p1445
aS'steadily'
p1446
aS'steady'
p1447
aS'steal'
p1448
aS'steel.'
p1449
aS'steep'
p1450
aS'steering'
p1451
aS'stepped'
p1452
aS'stern'
p1453
aS'stern.'
p1454
aS'stew'
p1455
aS'stew.\xe2\x80\x9d'
p1456
aS'stick'
p1457
aS'stick.'
p1458
aS'sticks'
p1459
aS'stiff'
p1460
aS'still'
p1461
aS'stop'
p1462
aS'stored.'
p1463
aS'storm'
p1464
aS'storm-bound'
p1465
aS'storms,'
p1466
aS'story'
p1467
aS'straggler'
p1468
aS'straight'
p1469
aS'straighter'
p1470
aS'strain'
p1471
aS'strange'
p1472
aS'strange,\xe2\x80\x9d'
p1473
aS'stray'
p1474
aS'stream'
p1475
aS'streets'
p1476
aS'strength,'
p1477
aS'strength.'
p1478
aS'strips'
p1479
aS'strokes'
p1480
aS'strong'
p1481
aS'struck'
p1482
aS'study'
p1483
aS'stuff'
p1484
aS'stupid'
p1485
aS'sturdy'
p1486
aS'subdue'
p1487
aS'successful'
p1488
aS'such'
p1489
aS'sudden'
p1490
aS'suddenly'
p1491
aS'sun'
p1492
aS'sun,'
p1493
aS'sun-bleached'
p1494
aS'sun-burned,'
p1495
aS'sun.'
p1496
aS'sung'
p1497
aS'sunny'
p1498
aS'supper.\xe2\x80\x9d'
p1499
aS'supply'
p1500
aS'supreme'
p1501
aS'sure'
p1502
aS'surf'
p1503
aS'surface'
p1504
aS'surface.'
p1505
aS'swallow'
p1506
aS'swallows'
p1507
aS'swam'
p1508
aS'sweat'
p1509
aS'sweet'
p1510
aS'swinging'
p1511
aS'swirl'
p1512
aS'swirls'
p1513
aS'swum'
p1514
aS'swung'
p1515
aS'table'
p1516
aS'table,'
p1517
aS'table?'
p1518
aS'tackle,'
p1519
aS'tail'
p1520
aS'tail.'
p1521
aS'take'
p1522
aS'taken'
p1523
aS'takes'
p1524
aS'taking'
p1525
aS'talk'
p1526
aS'talked'
p1527
aS'talking'
p1528
aS'tar'
p1529
aS'taste.'
p1530
aS'tasting.'
p1531
aS'taught'
p1532
aS'taut'
p1533
aS'team.\xe2\x80\x9d'
p1534
aS'telephone.\xe2\x80\x9d'
p1535
aS'tell'
p1536
aS'temptations'
p1537
aS'ten'
p1538
aS'tension.'
p1539
aS'tentative'
p1540
aS'terminal'
p1541
aS'terns'
p1542
aS'than'
p1543
aS'thank'
p1544
aS'thanked'
p1545
aS'that'
p1546
aS'that,'
p1547
aS'that,\xe2\x80\x9d'
p1548
aS'the'
p1549
aS'their'
p1550
aS'theirs.'
p1551
aS'them'
p1552
aS'them,'
p1553
aS'them.'
p1554
aS'them.\xe2\x80\x9d'
p1555
aS'them?\xe2\x80\x9d'
p1556
aS'themes'
p1557
aS'then'
p1558
aS'then,'
p1559
aS'then.'
p1560
aS'there'
p1561
aS'there.'
p1562
aS'these'
p1563
aS'these.\xe2\x80\x9d'
p1564
aS'they'
p1565
aS'thick'
p1566
aS'thin'
p1567
aS'thing'
p1568
aS'thing.'
p1569
aS'things'
p1570
aS'think'
p1571
aS'think,\xe2\x80\x9d'
p1572
aS'thinking'
p1573
aS'thinks'
p1574
aS'thinly'
p1575
aS'third'
p1576
aS'this'
p1577
aS'thole'
p1578
aS'those'
p1579
aS'though'
p1580
aS'though.'
p1581
aS'thought'
p1582
aS'thought,'
p1583
aS'thought.'
p1584
aS'thoughtful'
p1585
aS'thoughtless?'
p1586
aS'thoughts'
p1587
aS'thousand'
p1588
aS'three'
p1589
aS'through'
p1590
aS'throw'
p1591
aS'throwing'
p1592
aS'thrust'
p1593
aS'thumb'
p1594
aS'thumped'
p1595
aS'thwart'
p1596
aS'tied'
p1597
aS'tightened'
p1598
aS'tile'
p1599
aS'time'
p1600
aS'time.\xe2\x80\x9d'
p1601
aS'timeless'
p1602
aS'times'
p1603
aS'times,\xe2\x80\x9d'
p1604
aS'timid'
p1605
aS'timid.\xe2\x80\x9d'
p1606
aS'tinted'
p1607
aS'tiny'
p1608
aS'to'
p1609
aS'to,\xe2\x80\x9d'
p1610
aS'today'
p1611
aS'today,\xe2\x80\x9d'
p1612
aS'today.'
p1613
aS'today.\xe2\x80\x9d'
p1614
aS'toe'
p1615
aS'together'
p1616
aS'together.\xe2\x80\x9d'
p1617
aS'told'
p1618
aS'tomorrow?\xe2\x80\x9d'
p1619
aS'ton.'
p1620
aS'tonight'
p1621
aS'too'
p1622
aS'too.'
p1623
aS'too.\xe2\x80\x9d'
p1624
aS'took'
p1625
aS'tops'
p1626
aS'tore'
p1627
aS'touch'
p1628
aS'tough'
p1629
aS'toward'
p1630
aS'towel.'
p1631
aS'trade'
p1632
aS'trail'
p1633
aS'trailing'
p1634
aS'transforms'
p1635
aS'travel'
p1636
aS'travels'
p1637
aS'tree'
p1638
aS'trembling'
p1639
aS'trickle'
p1640
aS'tricks'
p1641
aS'tricks.\xe2\x80\x9d'
p1642
aS'triumph'
p1643
aS'tropic'
p1644
aS'trousers'
p1645
aS'truck'
p1646
aS'true'
p1647
aS'truly'
p1648
aS'trunk'
p1649
aS'try'
p1650
aS'trying'
p1651
aS'tuna'
p1652
aS'tuna,'
p1653
aS'tuna.'
p1654
aS'tunas,'
p1655
aS'tuna\xe2\x80\x99s'
p1656
aS'turn'
p1657
aS'turn,\xe2\x80\x9d'
p1658
aS'turn.'
p1659
aS'turned'
p1660
aS'turtle'
p1661
aS'turtle-ing'
p1662
aS'turtle-ing.'
p1663
aS'turtles'
p1664
aS'turtle\xe2\x80\x99s'
p1665
aS'twentieth-century'
p1666
aS'twenty-five'
p1667
aS'twice.'
p1668
aS'two'
p1669
aS'two-decker'
p1670
aS'unbelievably'
p1671
aS'undefeated.'
p1672
aS'under'
p1673
aS'understand.\xe2\x80\x9d'
p1674
aS'unintelligent'
p1675
aS'unleashed'
p1676
aS'unlocked'
p1677
aS'unlucky,'
p1678
aS'unnecessarily'
p1679
aS'unrolled'
p1680
aS'unrolling'
p1681
aS'until'
p1682
aS'up'
p1683
aS'up.'
p1684
aS'urinated'
p1685
aS'us'
p1686
aS'us.'
p1687
aS'us.\xe2\x80\x9d'
p1688
aS'use'
p1689
aS'used'
p1690
aS'using.'
p1691
aS'usually'
p1692
aS'value'
p1693
aS'very'
p1694
aS'village'
p1695
aS'virtue'
p1696
aS'voices'
p1697
aS'waited'
p1698
aS'waiting'
p1699
aS'wake'
p1700
aS'waken'
p1701
aS'waking'
p1702
aS'walk'
p1703
aS'walked'
p1704
aS'wall'
p1705
aS'walls'
p1706
aS'wandering'
p1707
aS'want'
p1708
aS'wanted'
p1709
aS'wants'
p1710
aS'warm'
p1711
aS'was'
p1712
aS'was.'
p1713
aS'wash.\xe2\x80\x9d'
p1714
aS'wash?'
p1715
aS'watch'
p1716
aS'watched'
p1717
aS'watched,'
p1718
aS'watching'
p1719
aS'water'
p1720
aS'water,'
p1721
aS'water.'
p1722
aS'way'
p1723
aS'way.\xe2\x80\x9d'
p1724
aS'we'
p1725
aS'we?\xe2\x80\x9d'
p1726
aS'weather'
p1727
aS'weather.'
p1728
aS'weed'
p1729
aS'week'
p1730
aS'week.'
p1731
aS'weeks.\xe2\x80\x9d'
p1732
aS'weigh'
p1733
aS'weighed'
p1734
aS'weight'
p1735
aS'weight,'
p1736
aS'well'
p1737
aS'well,'
p1738
aS'well.'
p1739
aS'well.\xe2\x80\x9d'
p1740
aS'wells'
p1741
aS'welts'
p1742
aS'went'
p1743
aS'were'
p1744
aS'wet'
p1745
aS'we\xe2\x80\x99ll'
p1746
aS'what'
p1747
aS'when'
p1748
aS'where'
p1749
aS'whether'
p1750
aS'which'
p1751
aS'while'
p1752
aS'whiplash.'
p1753
aS'white'
p1754
aS'who'
p1755
aS'whole'
p1756
aS'whore.\xe2\x80\x9d'
p1757
aS'wicked'
p1758
aS'widespread'
p1759
aS'wife'
p1760
aS'wife.'
p1761
aS'wild'
p1762
aS'wildly'
p1763
aS'will'
p1764
aS'wind'
p1765
aS'wings'
p1766
aS'wings,'
p1767
aS'winter'
p1768
aS'wire'
p1769
aS'wished'
p1770
aS'with'
p1771
aS'withheld'
p1772
aS'within'
p1773
aS'without'
p1774
aS'woke'
p1775
aS'woke,'
p1776
aS'woman,'
p1777
aS'woman.'
p1778
aS'women,'
p1779
aS'won'
p1780
aS'wonder'
p1781
aS'wooden'
p1782
aS'work'
p1783
aS'worked'
p1784
aS'working'
p1785
aS'working,'
p1786
aS'works'
p1787
aS'worse'
p1788
aS'worst'
p1789
aS'would'
p1790
aS'would,\xe2\x80\x9d'
p1791
aS'wrapped'
p1792
aS'wrinkles'
p1793
aS'wrong.\xe2\x80\x9d'
p1794
aS'yard'
p1795
aS'year'
p1796
aS'years'
p1797
aS'years.'
p1798
aS'yellow'
p1799
aS'yellow,'
p1800
aS'yesterday\xe2\x80\x99s'
p1801
aS'you'
p1802
aS'you,'
p1803
aS'you,\xe2\x80\x9d'
p1804
aS'you.'
p1805
aS'you.\xe2\x80\x9d'
p1806
aS'you?\xe2\x80\x9d'
p1807
aS'young'
p1808
aS'younger'
p1809
aS'your'
p1810
aS'yours'
p1811
aS'yourself,\xe2\x80\x9d'
p1812
aS'\xe2\x80\x9cA'
p1813
aS'\xe2\x80\x9cAge'
p1814
aS'\xe2\x80\x9cAgua'
p1815
aS'\xe2\x80\x9cAlbacore,\xe2\x80\x9d'
p1816
aS'\xe2\x80\x9cAll'
p1817
aS'\xe2\x80\x9cAnd'
p1818
aS'\xe2\x80\x9cAnyone'
p1819
aS'\xe2\x80\x9cAre'
p1820
aS'\xe2\x80\x9cBaseball'
p1821
aS'\xe2\x80\x9cBe'
p1822
aS'\xe2\x80\x9cBecause'
p1823
aS'\xe2\x80\x9cBetween'
p1824
aS'\xe2\x80\x9cBig'
p1825
aS'\xe2\x80\x9cBlack'
p1826
aS'\xe2\x80\x9cBut'
p1827
aS'\xe2\x80\x9cCan'
p1828
aS'\xe2\x80\x9cChrist'
p1829
aS'\xe2\x80\x9cCome'
p1830
aS'\xe2\x80\x9cDo'
p1831
aS'\xe2\x80\x9cDolphin,\xe2\x80\x9d'
p1832
aS'\xe2\x80\x9cEat'
p1833
aS'\xe2\x80\x9cEighty-five'
p1834
aS'\xe2\x80\x9cFar'
p1835
aS'\xe2\x80\x9cFive'
p1836
aS'\xe2\x80\x9cGod'
p1837
aS'\xe2\x80\x9cGood'
p1838
aS'\xe2\x80\x9cHas'
p1839
aS'\xe2\x80\x9cHave'
p1840
aS'\xe2\x80\x9cHe'
p1841
aS'\xe2\x80\x9cHe\xe2\x80\x99ll'
p1842
aS'\xe2\x80\x9cHe\xe2\x80\x99s'
p1843
aS'\xe2\x80\x9cHow'
p1844
aS'\xe2\x80\x9cI'
p1845
aS'\xe2\x80\x9cIf'
p1846
aS'\xe2\x80\x9cIn'
p1847
aS'\xe2\x80\x9cIt'
p1848
aS'\xe2\x80\x9cI\xe2\x80\x99ll'
p1849
aS'\xe2\x80\x9cI\xe2\x80\x99m'
p1850
aS'\xe2\x80\x9cI\xe2\x80\x99ve'
p1851
aS'\xe2\x80\x9cKeep'
p1852
aS'\xe2\x80\x9cLet'
p1853
aS'\xe2\x80\x9cMake'
p1854
aS'\xe2\x80\x9cMartin.'
p1855
aS'\xe2\x80\x9cMay'
p1856
aS'\xe2\x80\x9cMy'
p1857
aS'\xe2\x80\x9cNaturally.'
p1858
aS'\xe2\x80\x9cNo,\xe2\x80\x9d'
p1859
aS'\xe2\x80\x9cNo.'
p1860
aS'\xe2\x80\x9cNow'
p1861
aS'\xe2\x80\x9cOf'
p1862
aS'\xe2\x80\x9cOne'
p1863
aS'\xe2\x80\x9cOne,\xe2\x80\x9d'
p1864
aS'\xe2\x80\x9cPerico'
p1865
aS'\xe2\x80\x9cQua'
p1866
aS'\xe2\x80\x9cQue'
p1867
aS'\xe2\x80\x9cRemember'
p1868
aS'\xe2\x80\x9cSantiago,\xe2\x80\x9d'
p1869
aS'\xe2\x80\x9cShould'
p1870
aS'\xe2\x80\x9cSleep'
p1871
aS'\xe2\x80\x9cSo'
p1872
aS'\xe2\x80\x9cSupper,\xe2\x80\x9d'
p1873
aS'\xe2\x80\x9cTell'
p1874
aS'\xe2\x80\x9cThank'
p1875
aS'\xe2\x80\x9cThat'
p1876
aS'\xe2\x80\x9cThat\xe2\x80\x99s'
p1877
aS'\xe2\x80\x9cThe'
p1878
aS'\xe2\x80\x9cThen'
p1879
aS'\xe2\x80\x9cThere'
p1880
aS'\xe2\x80\x9cThey'
p1881
aS'\xe2\x80\x9cTomorrow'
p1882
aS'\xe2\x80\x9cTwo,\xe2\x80\x9d'
p1883
aS'\xe2\x80\x9cVery'
p1884
aS'\xe2\x80\x9cWake'
p1885
aS'\xe2\x80\x9cWe'
p1886
aS'\xe2\x80\x9cWe\xe2\x80\x99ll'
p1887
aS'\xe2\x80\x9cWe\xe2\x80\x99re'
p1888
aS'\xe2\x80\x9cWhat'
p1889
aS'\xe2\x80\x9cWhen'
p1890
aS'\xe2\x80\x9cWhere'
p1891
aS'\xe2\x80\x9cWho'
p1892
aS'\xe2\x80\x9cWhy'
p1893
aS'\xe2\x80\x9cYes,\xe2\x80\x9d'
p1894
aS'\xe2\x80\x9cYes.'
p1895
aS'\xe2\x80\x9cYou'
p1896
aS'\xe2\x80\x9cYour'
p1897
aS'\xe2\x80\x9cYou\xe2\x80\x99ll'
p1898
aS'\xe2\x80\x9cYou\xe2\x80\x99re'
p1899
a(dp1900
g757
I757
sg234
I234
sg1513
I1513
sg1799
I1799
sg694
I694
sg1386
I1386
sg1096
I1096
sg1684
I1684
sg1147
I1147
sg1508
I1508
sg1896
I1896
sg1146
I1146
sg1031
I1031
sg1645
I1645
sg1426
I1426
sg73
I72
sg299
I299
sg588
I588
sg583
I583
sg877
I877
sg548
I548
sg1613
I1613
sg1074
I1074
sg1301
I1301
sg1782
I1782
sg1270
I1270
sg1229
I1229
sg41
I39
sg706
I706
sg1643
I1643
sg1791
I1791
sg683
I683
sg802
I802
sg1353
I1353
sg1003
I1003
sg1004
I1004
sg846
I846
sg1091
I1091
sg1417
I1417
sg1895
I1895
sg305
I305
sg1801
I1801
sg639
I639
sg1177
I1177
sg617
I617
sg155
I155
sg917
I917
sg175
I175
sg1060
I1060
sg582
I582
sg19
I17
sg1618
I1618
sg884
I884
sg1010
I1010
sg803
I803
sg35
I33
sg1806
I1806
sg74
I73
sg918
I918
sg393
I393
sg449
I449
sg638
I638
sg224
I224
sg736
I736
sg1474
I1474
sg342
I342
sg78
I77
sg1453
I1453
sg1436
I1436
sg1790
I1790
sg212
I212
sg1786
I1786
sg211
I211
sg118
I117
sg357
I357
sg1682
I1682
sg1247
I1247
sg1536
I1536
sg808
I808
sg1488
I1488
sg340
I340
sg1673
I1673
sg851
I851
sg534
I534
sg1711
I1711
sg587
I587
sg822
I822
sg1100
I1100
sg1044
I1044
sg1002
I1002
sg530
I530
sg585
I585
sg1262
I1262
sg417
I417
sg1830
I1830
sg1045
I1045
sg725
I725
sg1624
I1624
sg509
I509
sg794
I794
sg1347
I1347
sg1708
I1708
sg1039
I1039
sg986
I986
sg571
I571
sg1657
I1657
sg1636
I1636
sg413
I413
sg841
I841
sg399
I399
sg310
I310
sg1539
I1539
sg1759
I1759
sg257
I257
sg1221
I1221
sg158
I158
sg150
I149
sg879
I879
sg909
I909
sg456
I456
sg1606
I1606
sg3
I1
sg307
I307
sg1576
I1576
sg411
I411
sg750
I750
sg186
I186
sg1789
I1789
sg1122
I1122
sg1765
I1765
sg474
I474
sg525
I525
sg1135
I1135
sg521
I521
sg522
I522
sg1542
I1542
sg640
I640
sg274
I274
sg55
I53
sg1560
I1560
sg1559
I1559
sg1154
I1154
sg52
I50
sg1886
I1886
sg285
I285
sg412
I412
sg1220
I1220
sg1558
I1558
sg402
I402
sg334
I334
sg1565
I1565
sg1303
I1303
sg1370
I1370
sg244
I244
sg1728
I1728
sg1008
I1008
sg1731
I1731
sg122
I121
sg912
I912
sg544
I544
sg1743
I1743
sg1363
I1363
sg970
I970
sg926
I926
sg557
I557
sg120
I119
sg1479
I1479
sg658
I658
sg469
I469
sg536
I536
sg832
I832
sg689
I689
sg616
I616
sg901
I901
sg1535
I1535
sg1612
I1612
sg743
I743
sg1667
I1667
sg25
I23
sg727
I727
sg696
I696
sg1466
I1466
sg1709
I1709
sg28
I26
sg222
I222
sg796
I796
sg797
I797
sg109
I108
sg471
I471
sg1339
I1339
sg1173
I1173
sg364
I364
sg1117
I1117
sg189
I189
sg1623
I1623
sg991
I991
sg101
I100
sg829
I829
sg202
I202
sg1566
I1566
sg1320
I1320
sg1354
I1354
sg316
I316
sg629
I629
sg1058
I1058
sg1622
I1622
sg1763
I1763
sg550
I550
sg1615
I1615
sg333
I333
sg1284
I1284
sg308
I308
sg766
I766
sg1313
I1313
sg1625
I1625
sg1713
I1713
sg630
I630
sg1356
I1356
sg173
I173
sg1306
I1306
sg513
I513
sg862
I862
sg108
I107
sg1617
I1617
sg622
I622
sg1104
I1104
sg1215
I1215
sg1016
I1016
sg591
I591
sg1126
I1126
sg1739
I1739
sg1362
I1362
sg1308
I1308
sg684
I684
sg786
I786
sg1546
I1546
sg1176
I1176
sg1403
I1403
sg569
I569
sg388
I388
sg131
I130
sg579
I579
sg1586
I1586
sg1594
I1594
sg1580
I1580
sg1741
I1741
sg1038
I1038
sg610
I610
sg386
I386
sg405
I405
sg67
I66
sg1085
I1085
sg861
I861
sg65
I64
sg174
I174
sg515
I515
sg1012
I1012
sg1879
I1879
sg481
I481
sg1494
I1494
sg751
I751
sg1601
I1601
sg359
I359
sg1237
I1237
sg744
I744
sg235
I235
sg105
I104
sg1331
I1331
sg365
I365
sg717
I717
sg11
I9
sg1534
I1534
sg1676
I1676
sg478
I478
sg1243
I1243
sg97
I96
sg1644
I1644
sg1241
I1241
sg1740
I1740
sg505
I505
sg1137
I1137
sg1462
I1462
sg401
I401
sg1174
I1174
sg1666
I1666
sg659
I659
sg1656
I1656
sg1269
I1269
sg499
I499
sg1327
I1327
sg233
I233
sg1410
I1410
sg1554
I1554
sg1553
I1553
sg1448
I1448
sg1635
I1635
sg777
I777
sg70
I69
sg283
I283
sg1277
I1277
sg597
I597
sg1281
I1281
sg1397
I1397
sg637
I637
sg1149
I1149
sg1429
I1429
sg1831
I1831
sg1725
I1725
sg1063
I1063
sg404
I404
sg1260
I1260
sg1400
I1400
sg1337
I1337
sg1853
I1853
sg440
I440
sg1302
I1302
sg163
I163
sg1825
I1825
sg216
I216
sg1839
I1839
sg1629
I1629
sg754
I754
sg1649
I1649
sg1020
I1020
sg539
I539
sg1439
I1439
sg1432
I1432
sg1084
I1084
sg1086
I1086
sg1480
I1480
sg45
I43
sg420
I420
sg1589
I1589
sg269
I269
sg1210
I1210
sg1236
I1236
sg971
I971
sg270
I270
sg1043
I1043
sg477
I477
sg1875
I1875
sg925
I925
sg258
I258
sg1631
I1631
sg297
I297
sg1620
I1620
sg374
I374
sg1784
I1784
sg1697
I1697
sg547
I547
sg199
I199
sg172
I172
sg1483
I1483
sg1583
I1583
sg1318
I1318
sg1584
I1584
sg1170
I1170
sg1166
I1166
sg867
I867
sg868
I868
sg1843
I1843
sg363
I363
sg856
I856
sg1278
I1278
sg1280
I1280
sg853
I853
sg1701
I1701
sg664
I664
sg709
I709
sg1570
I1570
sg977
I977
sg1854
I1854
sg1160
I1160
sg282
I282
sg279
I279
sg1148
I1148
sg1887
I1887
sg82
I81
sg1626
I1626
sg141
I140
sg758
I758
sg140
I139
sg1652
I1652
sg1587
I1587
sg883
I883
sg1776
I1776
sg1095
I1095
sg1569
I1569
sg748
I748
sg1549
I1549
sg1811
I1811
sg919
I919
sg1849
I1849
sg881
I881
sg1388
I1388
sg624
I624
sg625
I625
sg1883
I1883
sg1299
I1299
sg809
I809
sg1271
I1271
sg1766
I1766
sg866
I866
sg527
I527
sg549
I549
sg432
I432
sg778
I778
sg680
I680
sg715
I715
sg166
I166
sg1319
I1319
sg1387
I1387
sg911
I911
sg206
I206
sg1350
I1350
sg50
I48
sg1794
I1794
sg1814
I1814
sg6
I4
sg1068
I1068
sg847
I847
sg1816
I1816
sg1578
I1578
sg1246
I1246
sg1103
I1103
sg1151
I1151
sg318
I318
sg1502
I1502
sg920
I920
sg112
I111
sg681
I681
sg1203
I1203
sg113
I112
sg852
I852
sg584
I584
sg218
I218
sg1023
I1023
sg49
I47
sg409
I409
sg473
I473
sg315
I315
sg632
I632
sg1530
I1530
sg132
I131
sg38
I36
sg508
I508
sg406
I406
sg1446
I1446
sg1214
I1214
sg682
I682
sg76
I75
sg520
I520
sg493
I493
sg564
I564
sg42
I40
sg674
I674
sg1723
I1723
sg1712
I1712
sg992
I992
sg768
I768
sg789
I789
sg687
I687
sg1101
I1101
sg1415
I1415
sg1406
I1406
sg627
I627
sg791
I791
sg987
I987
sg1070
I1070
sg665
I665
sg863
I863
sg494
I494
sg7
I5
sg1035
I1035
sg1865
I1865
sg53
I51
sg1197
I1197
sg1459
I1459
sg400
I400
sg142
I141
sg1338
I1338
sg590
I590
sg433
I433
sg543
I543
sg1069
I1069
sg1748
I1748
sg268
I268
sg267
I267
sg1011
I1011
sg823
I823
sg27
I25
sg1399
I1399
sg1159
I1159
sg626
I626
sg989
I989
sg462
I462
sg463
I463
sg1458
I1458
sg277
I277
sg1809
I1809
sg950
I950
sg348
I348
sg729
I729
sg1274
I1274
sg662
I662
sg1616
I1616
sg878
I878
sg1600
I1600
sg1206
I1206
sg1037
I1037
sg843
I843
sg60
I59
sg237
I237
sg1557
I1557
sg1014
I1014
sg1381
I1381
sg255
I255
sg377
I377
sg1015
I1015
sg137
I136
sg1266
I1266
sg46
I44
sg1688
I1688
sg612
I612
sg205
I205
sg240
I240
sg633
I633
sg239
I239
sg1659
I1659
sg1396
I1396
sg343
I343
sg1866
I1866
sg1867
I1867
sg31
I29
sg435
I435
sg146
I145
sg397
I397
sg72
I71
sg924
I924
sg490
I490
sg1292
I1292
sg916
I916
sg1209
I1209
sg1290
I1290
sg497
I497
sg81
I80
sg1527
I1527
sg1368
I1368
sg384
I384
sg1144
I1144
sg1272
I1272
sg1167
I1167
sg618
I618
sg436
I436
sg304
I304
sg1850
I1850
sg455
I455
sg732
I732
sg1341
I1341
sg1720
I1720
sg182
I182
sg635
I635
sg184
I184
sg87
I86
sg1581
I1581
sg328
I328
sg330
I330
sg1097
I1097
sg326
I326
sg1692
I1692
sg532
I532
sg264
I264
sg1228
I1228
sg1325
I1325
sg271
I271
sg145
I144
sg603
I603
sg1349
I1349
sg994
I994
sg1767
I1767
sg1785
I1785
sg1196
I1196
sg1251
I1251
sg940
I940
sg480
I480
sg165
I165
sg134
I133
sg968
I968
sg1859
I1859
sg90
I89
sg130
I129
sg609
I609
sg1696
I1696
sg1463
I1463
sg559
I559
sg198
I198
sg360
I360
sg289
I289
sg979
I979
sg1066
I1066
sg793
I793
sg1475
I1475
sg1844
I1844
sg792
I792
sg1607
I1607
sg855
I855
sg805
I805
sg1861
I1861
sg1768
I1768
sg148
I147
sg1490
I1490
sg249
I249
sg251
I251
sg695
I695
sg1162
I1162
sg149
I148
sg1860
I1860
sg993
I993
sg1000
I1000
sg1873
I1873
sg504
I504
sg619
I619
sg972
I972
sg85
I84
sg1489
I1489
sg519
I519
sg1671
I1671
sg982
I982
sg286
I286
sg1230
I1230
sg1841
I1841
sg1655
I1655
sg1001
I1001
sg362
I362
sg553
I553
sg254
I254
sg1087
I1087
sg1201
I1201
sg1526
I1526
sg447
I447
sg546
I546
sg1521
I1521
sg1797
I1797
sg410
I410
sg1461
I1461
sg453
I453
sg293
I293
sg1627
I1627
sg1619
I1619
sg104
I103
sg1544
I1544
sg491
I491
sg837
I837
sg139
I138
sg63
I62
sg292
I292
sg23
I21
sg947
I947
sg111
I110
sg1077
I1077
sg1083
I1083
sg885
I885
sg1073
I1073
sg894
I894
sg605
I605
sg1603
I1603
sg651
I651
sg1661
I1661
sg568
I568
sg1441
I1441
sg1191
I1191
sg1796
I1796
sg764
I764
sg1225
I1225
sg1548
I1548
sg430
I430
sg1119
I1119
sg1894
I1894
sg171
I171
sg598
I598
sg1261
I1261
sg954
I954
sg1357
I1357
sg1365
I1365
sg116
I115
sg123
I122
sg1212
I1212
sg500
I500
sg367
I367
sg904
I904
sg712
I712
sg1568
I1568
sg581
I581
sg1163
I1163
sg1878
I1878
sg1571
I1571
sg1698
I1698
sg644
I644
sg129
I128
sg1111
I1111
sg1473
I1473
sg608
I608
sg371
I371
sg1249
I1249
sg1118
I1118
sg383
I383
sg939
I939
sg1369
I1369
sg376
I376
sg1389
I1389
sg204
I204
sg1342
I1342
sg1754
I1754
sg688
I688
sg1109
I1109
sg779
I779
sg721
I721
sg1425
I1425
sg774
I774
sg1543
I1543
sg726
I726
sg892
I892
sg1744
I1744
sg219
I219
sg1707
I1707
sg197
I197
sg1335
I1335
sg1660
I1660
sg100
I99
sg1275
I1275
sg1296
I1296
sg614
I614
sg1295
I1295
sg203
I203
sg1454
I1454
sg1294
I1294
sg30
I28
sg1847
I1847
sg1427
I1427
sg1846
I1846
sg1522
I1522
sg985
I985
sg1848
I1848
sg1064
I1064
sg1150
I1150
sg1503
I1503
sg381
I381
sg1382
I1382
sg891
I891
sg1061
I1061
sg102
I101
sg1477
I1477
sg578
I578
sg1478
I1478
sg429
I429
sg908
I908
sg1447
I1447
sg353
I353
sg1283
I1283
sg183
I183
sg1504
I1504
sg1355
I1355
sg1380
I1380
sg1189
I1189
sg438
I438
sg143
I142
sg1647
I1647
sg236
I236
sg574
I574
sg848
I848
sg1116
I1116
sg733
I733
sg295
I295
sg1719
I1719
sg1309
I1309
sg439
I439
sg722
I722
sg1468
I1468
sg1648
I1648
sg594
I594
sg1051
I1051
sg1021
I1021
sg1047
I1047
sg649
I649
sg319
I319
sg1029
I1029
sg1485
I1485
sg238
I238
sg1052
I1052
sg9
I7
sg1749
I1749
sg446
I446
sg351
I351
sg1683
I1683
sg114
I113
sg760
I760
sg1781
I1781
sg1614
I1614
sg125
I124
sg1437
I1437
sg1134
I1134
sg287
I287
sg156
I156
sg66
I65
sg1293
I1293
sg1431
I1431
sg1305
I1305
sg1876
I1876
sg33
I31
sg416
I416
sg1826
I1826
sg1685
I1685
sg990
I990
sg1025
I1025
sg15
I13
sg800
I800
sg1505
I1505
sg418
I418
sg195
I195
sg361
I361
sg414
I414
sg1183
I1183
sg804
I804
sg1182
I1182
sg1514
I1514
sg1222
I1222
sg306
I306
sg1746
I1746
sg14
I12
sg48
I46
sg1710
I1710
sg1140
I1140
sg1531
I1531
sg752
I752
sg1588
I1588
sg1598
I1598
sg1700
I1700
sg369
I369
sg1258
I1258
sg1430
I1430
sg1664
I1664
sg1563
I1563
sg373
I373
sg685
I685
sg1065
I1065
sg368
I368
sg273
I273
sg29
I27
sg1552
I1552
sg1471
I1471
sg740
I740
sg876
I876
sg1040
I1040
sg705
I705
sg1732
I1732
sg1828
I1828
sg1285
I1285
sg554
I554
sg1452
I1452
sg1730
I1730
sg1102
I1102
sg247
I247
sg1027
I1027
sg535
I535
sg1729
I1729
sg201
I201
sg482
I482
sg1034
I1034
sg1738
I1738
sg61
I60
sg671
I671
sg64
I63
sg327
I327
sg562
I562
sg336
I336
sg322
I322
sg59
I58
sg1694
I1694
sg1361
I1361
sg349
I349
sg58
I57
sg300
I300
sg1240
I1240
sg1392
I1392
sg1807
I1807
sg1384
I1384
sg1434
I1434
sg220
I220
sg498
I498
sg1573
I1573
sg1264
I1264
sg589
I589
sg1885
I1885
sg1482
I1482
sg1761
I1761
sg213
I213
sg886
I886
sg1218
I1218
sg545
I545
sg126
I125
sg1180
I1180
sg872
I872
sg1198
I1198
sg311
I311
sg312
I312
sg567
I567
sg193
I193
sg1777
I1777
sg1314
I1314
sg1778
I1778
sg10
I8
sg1333
I1333
sg54
I52
sg595
I595
sg1574
I1574
sg83
I82
sg988
I988
sg1677
I1677
sg1024
I1024
sg686
I686
sg890
I890
sg631
I631
sg511
I511
sg1833
I1833
sg1378
I1378
sg1591
I1591
sg259
I259
sg1107
I1107
sg1257
I1257
sg1098
I1098
sg1358
I1358
sg814
I814
sg423
I423
sg1130
I1130
sg1120
I1120
sg1253
I1253
sg1211
I1211
sg1891
I1891
sg88
I87
sg1401
I1401
sg168
I168
sg566
I566
sg1551
I1551
sg1252
I1252
sg526
I526
sg1810
I1810
sg1030
I1030
sg1735
I1735
sg801
I801
sg1561
I1561
sg1407
I1407
sg375
I375
sg937
I937
sg969
I969
sg344
I344
sg313
I313
sg1131
I1131
sg1805
I1805
sg1291
I1291
sg1803
I1803
sg200
I200
sg1651
I1651
sg1771
I1771
sg903
I903
sg611
I611
sg1199
I1199
sg1889
I1889
sg1532
I1532
sg860
I860
sg737
I737
sg190
I190
sg1487
I1487
sg194
I194
sg475
I475
sg196
I196
sg56
I54
sg214
I214
sg221
I221
sg1717
I1717
sg1161
I1161
sg159
I159
sg276
I276
sg1642
I1642
sg366
I366
sg1877
I1877
sg1802
I1802
sg502
I502
sg484
I484
sg1181
I1181
sg1310
I1310
sg1435
I1435
sg529
I529
sg444
I444
sg875
I875
sg1287
I1287
sg647
I647
sg1760
I1760
sg1641
I1641
sg458
I458
sg997
I997
sg1465
I1465
sg983
I983
sg178
I178
sg957
I957
sg1423
I1423
sg1022
I1022
sg1585
I1585
sg1497
I1497
sg1224
I1224
sg467
I467
sg1155
I1155
sg1862
I1862
sg565
I565
sg1609
I1609
sg1520
I1520
sg1579
I1579
sg380
I380
sg34
I32
sg1788
I1788
sg1248
I1248
sg1376
I1376
sg606
I606
sg1507
I1507
sg668
I668
sg415
I415
sg1496
I1496
sg1493
I1493
sg345
I345
sg1413
I1413
sg425
I425
sg281
I281
sg17
I15
sg1286
I1286
sg1398
I1398
sg75
I74
sg1772
I1772
sg1538
I1538
sg1422
I1422
sg1476
I1476
sg838
I838
sg95
I94
sg711
I711
sg1053
I1053
sg1747
I1747
sg1054
I1054
sg464
I464
sg1470
I1470
sg1492
I1492
sg253
I253
sg501
I501
sg813
I813
sg812
I812
sg615
I615
sg1678
I1678
sg424
I424
sg707
I707
sg577
I577
sg18
I16
sg914
I914
sg839
I839
sg1762
I1762
sg1288
I1288
sg1481
I1481
sg1385
I1385
sg170
I170
sg1899
I1899
sg1105
I1105
sg1157
I1157
sg677
I677
sg1491
I1491
sg897
I897
sg1752
I1752
sg215
I215
sg895
I895
sg1110
I1110
sg1524
I1524
sg601
I601
sg1669
I1669
sg337
I337
sg1523
I1523
sg1026
I1026
sg836
I836
sg663
I663
sg514
I514
sg898
I898
sg1200
I1200
sg1443
I1443
sg620
I620
sg4
I2
sg731
I731
sg1457
I1457
sg341
I341
sg850
I850
sg1734
I1734
sg1072
I1072
sg489
I489
sg859
I859
sg1533
I1533
sg1080
I1080
sg1595
I1595
sg1081
I1081
sg138
I137
sg980
I980
sg263
I263
sg1330
I1330
sg734
I734
sg1329
I1329
sg1851
I1851
sg1515
I1515
sg1433
I1433
sg842
I842
sg1279
I1279
sg57
I56
sg1216
I1216
sg335
I335
sg552
I552
sg1804
I1804
sg1138
I1138
sg303
I303
sg419
I419
sS'a'
I153
sg1348
I1348
sg451
I451
sg962
I962
sg1346
I1346
sg1323
I1323
sg1208
I1208
sg524
I524
sg1171
I1171
sg1852
I1852
sg799
I799
sg1213
I1213
sg1424
I1424
sg1632
I1632
sg248
I248
sg798
I798
sg1142
I1142
sg1590
I1590
sg873
I873
sg905
I905
sg907
I907
sg1800
I1800
sg1013
I1013
sg871
I871
sg869
I869
sg580
I580
sg1680
I1680
sg669
I669
sg1706
I1706
sg865
I865
sg679
I679
sg488
I488
sg180
I180
sg179
I179
sg1418
I1418
sg1668
I1668
sg1256
I1256
sg693
I693
sg1718
I1718
sg795
I795
sg1250
I1250
sg1059
I1059
sg896
I896
sg840
I840
sg645
I645
sg772
I772
sg1690
I1690
sg755
I755
sg1820
I1820
sg1223
I1223
sg1637
I1637
sg135
I134
sg1374
I1374
sg1193
I1193
sS'I'
I55
sg1821
I1821
sg771
I771
sg1893
I1893
sg533
I533
sg1714
I1714
sg1172
I1172
sg1892
I1892
sg231
I231
sg1837
I1837
sg151
I150
sg1640
I1640
sg604
I604
sg621
I621
sg385
I385
sg623
I623
sg512
I512
sg1232
I1232
sg1467
I1467
sg1519
I1519
sg915
I915
sg1464
I1464
sg845
I845
sg1537
I1537
sg278
I278
sg162
I162
sg1145
I1145
sg692
I692
sg887
I887
sg1856
I1856
sg745
I745
sg653
I653
sg1630
I1630
sg1235
I1235
sg1757
I1757
sg516
I516
sg943
I943
sg1824
I1824
sg448
I448
sg1123
I1123
sg228
I228
sg1311
I1311
sg191
I191
sg1267
I1267
sg1774
I1774
sg826
I826
sg1169
I1169
sg560
I560
sg946
I946
sg296
I296
sg1032
I1032
sg555
I555
sg1079
I1079
sg127
I126
sg1409
I1409
sg1870
I1870
sg1486
I1486
sg1421
I1421
sg309
I309
sg1078
I1078
sg1555
I1555
sg390
I390
sg124
I123
sg1733
I1733
sg735
I735
sg1836
I1836
sg641
I641
sg678
I678
sg636
I636
sg634
I634
sg724
I724
sg1898
I1898
sg817
I817
sg819
I819
sg1498
I1498
sg1864
I1864
sg442
I442
sg951
I951
sg984
I984
sg811
I811
sg294
I294
sg1602
I1602
sg68
I67
sg1834
I1834
sg487
I487
sg483
I483
sg1315
I1315
sg39
I37
sg1592
I1592
sg1638
I1638
sg1628
I1628
sg1307
I1307
sg245
I245
sg208
I208
sg1304
I1304
sg395
I395
sg209
I209
sg889
I889
sg1857
I1857
sg1780
I1780
sg1046
I1046
sg1689
I1689
sg1192
I1192
sg350
I350
sg1412
I1412
sg1672
I1672
sg472
I472
sg670
I670
sg321
I321
sg906
I906
sg930
I930
sg44
I42
sg714
I714
sg260
I260
sg468
I468
sg1094
I1094
sg1756
I1756
sg110
I109
sg1090
I1090
sg1175
I1175
sg1371
I1371
sg1510
I1510
sg770
I770
sg1373
I1373
sg1695
I1695
sg1562
I1562
sg1238
I1238
sg1273
I1273
sg540
I540
sg1869
I1869
sg570
I570
sg643
I643
sg941
I941
sg667
I667
sg1838
I1838
sg1449
I1449
sg1745
I1745
sg1017
I1017
sg290
I290
sg437
I437
sg1679
I1679
sg1842
I1842
sg762
I762
sg91
I90
sg952
I952
sg1528
I1528
sg1414
I1414
sg1469
I1469
sg1263
I1263
sg1379
I1379
sg913
I913
sg708
I708
sg407
I407
sg956
I956
sg1817
I1817
sg874
I874
sg1259
I1259
sg1219
I1219
sg784
I784
sg495
I495
sg226
I226
sg1340
I1340
sg1742
I1742
sg391
I391
sg1840
I1840
sg807
I807
sg457
I457
sg128
I127
sg1868
I1868
sg1019
I1019
sg1041
I1041
sg1605
I1605
sg461
I461
sg428
I428
sg1106
I1106
sg1650
I1650
sg1654
I1654
sg558
I558
sg121
I120
sg1665
I1665
sg704
I704
sg1343
I1343
sg753
I753
sg1282
I1282
sg387
I387
sg963
I963
sg923
I923
sg459
I459
sg454
I454
sg320
I320
sg780
I780
sg1231
I1231
sg1143
I1143
sg92
I91
sg288
I288
sg996
I996
sg96
I95
sg20
I18
sg1289
I1289
sg1518
I1518
sg995
I995
sg738
I738
sg1517
I1517
sg870
I870
sg43
I41
sg976
I976
sg227
I227
sg1139
I1139
sg1367
I1367
sg1779
I1779
sg389
I389
sg157
I157
sg1455
I1455
sg741
I741
sg256
I256
sg556
I556
sg1234
I1234
sg880
I880
sg1359
I1359
sg1268
I1268
sg613
I613
sg537
I537
sg1009
I1009
sg356
I356
sg602
I602
sg1646
I1646
sg1793
I1793
sg973
I973
sg261
I261
sg302
I302
sg648
I648
sg646
I646
sg572
I572
sg1845
I1845
sg864
I864
sg1773
I1773
sg331
I331
sg1813
I1813
sg37
I35
sg531
I531
sg301
I301
sg26
I24
sg948
I948
sg36
I34
sg691
I691
sg317
I317
sg24
I22
sg742
I742
sg1036
I1036
sg815
I815
sg834
I834
sg332
I332
sg932
I932
sg465
I465
sg144
I143
sg1881
I1881
sg2
I0
sg1366
I1366
sg1686
I1686
sg1611
I1611
sg600
I600
sg1822
I1822
sg701
I701
sg358
I358
sg106
I105
sg136
I135
sg1783
I1783
sg272
I272
sg1540
I1540
sg80
I79
sg79
I78
sg1736
I1736
sg232
I232
sg1093
I1093
sg398
I398
sg1512
I1512
sg77
I76
sg1056
I1056
sg561
I561
sg1141
I1141
sg242
I242
sg650
I650
sg71
I70
sg899
I899
sg1033
I1033
sg1364
I1364
sg902
I902
sg164
I164
sg824
I824
sg1704
I1704
sg229
I229
sg8
I6
sg372
I372
sg1882
I1882
sg660
I660
sg698
I698
sg769
I769
sg1495
I1495
sg382
I382
sg730
I730
sg421
I421
sg492
I492
sg518
I518
sg1808
I1808
sg1321
I1321
sg89
I88
sg702
I702
sg1312
I1312
sg1089
I1089
sg1770
I1770
sg1715
I1715
sg176
I176
sg713
I713
sg169
I169
sg152
I151
sg831
I831
sg830
I830
sg1028
I1028
sg434
I434
sg1460
I1460
sg230
I230
sg844
I844
sg1702
I1702
sg675
I675
sg652
I652
sg1158
I1158
sg1547
I1547
sg710
I710
sg470
I470
sg1699
I1699
sg654
I654
sg655
I655
sg291
I291
sg314
I314
sg967
I967
sg700
I700
sg922
I922
sg773
I773
sg1125
I1125
sg966
I966
sg69
I68
sg747
I747
sg119
I118
sg1187
I1187
sg1324
I1324
sg1114
I1114
sg479
I479
sg978
I978
sg485
I485
sg210
I210
sg1048
I1048
sg426
I426
sg961
I961
sg1819
I1819
sg1067
I1067
sg1564
I1564
sg1428
I1428
sg1445
I1445
sg1670
I1670
sg1633
I1633
sg177
I177
sg1332
I1332
sg1577
I1577
sg1687
I1687
sg246
I246
sg1567
I1567
sg538
I538
sg1390
I1390
sg1529
I1529
sg944
I944
sg607
I607
sg806
I806
sg756
I756
sg1202
I1202
sg1419
I1419
sg1393
I1393
sg1722
I1722
sg1829
I1829
sg431
I431
sg1050
I1050
sg1375
I1375
sg928
I928
sg1377
I1377
sg934
I934
sg933
I933
sg1411
I1411
sg32
I30
sg284
I284
sg1716
I1716
sg1597
I1597
sg936
I936
sg1042
I1042
sg739
I739
sg927
I927
sg935
I935
sg94
I93
sg1132
I1132
sg324
I324
sg759
I759
sg13
I11
sg761
I761
sg1818
I1818
sg1556
I1556
sg835
I835
sg854
I854
sg958
I958
sg1153
I1153
sg445
I445
sg1121
I1121
sg1691
I1691
sg810
I810
sg672
I672
sg1823
I1823
sg1599
I1599
sg460
I460
sg1242
I1242
sg16
I14
sg763
I763
sg888
I888
sg466
I466
sg1049
I1049
sg1753
I1753
sg1394
I1394
sg107
I106
sg1062
I1062
sg40
I38
sg849
I849
sg981
I981
sg1233
I1233
sg1815
I1815
sg506
I506
sg767
I767
sg1128
I1128
sg1129
I1129
sg656
I656
sg1185
I1185
sg252
I252
sg1226
I1226
sg1863
I1863
sg673
I673
sg1360
I1360
sg828
I828
sg207
I207
sg133
I132
sg422
I422
sg1593
I1593
sg1451
I1451
sg642
I642
sg1795
I1795
sg441
I441
sg1298
I1298
sg1207
I1207
sg427
I427
sg882
I882
sg921
I921
sg98
I97
sg1681
I1681
sg1186
I1186
sg1217
I1217
sg1300
I1300
sg785
I785
sg443
I443
sg22
I20
sg1550
I1550
sg1792
I1792
sg716
I716
sg1336
I1336
sg586
I586
sg938
I938
sg450
I450
sg1402
I1402
sg1055
I1055
sg103
I102
sg965
I965
sg1156
I1156
sg1721
I1721
sg266
I266
sg1440
I1440
sg1450
I1450
sg503
I503
sg1404
I1404
sg929
I929
sg394
I394
sg576
I576
sg720
I720
sg998
I998
sg1621
I1621
sg719
I719
sg1832
I1832
sg783
I783
sg1057
I1057
sg1639
I1639
sg392
I392
sg1204
I1204
sg1165
I1165
sg1205
I1205
sg1751
I1751
sg1405
I1405
sg1408
I1408
sg298
I298
sg1755
I1755
sg1178
I1178
sg999
I999
sg974
I974
sg352
I352
sg1855
I1855
sg115
I114
sg596
I596
sg953
I953
sg1827
I1827
sg225
I225
sg1112
I1112
sg1897
I1897
sg339
I339
sg1265
I1265
sg1190
I1190
sg718
I718
sg1541
I1541
sg338
I338
sg223
I223
sg1244
I1244
sg945
I945
sg833
I833
sg1007
I1007
sg1798
I1798
sg1006
I1006
sg262
I262
sg1726
I1726
sg955
I955
sg1888
I1888
sg1005
I1005
sg1113
I1113
sg379
I379
sg1658
I1658
sg93
I92
sg746
I746
sg1484
I1484
sg1334
I1334
sg1835
I1835
sg628
I628
sg1874
I1874
sg147
I146
sg21
I19
sg408
I408
sg1769
I1769
sg280
I280
sg476
I476
sg325
I325
sg217
I217
sg788
I788
sg62
I61
sg1444
I1444
sg1604
I1604
sg820
I820
sg1724
I1724
sg541
I541
sg1525
I1525
sg900
I900
sg1880
I1880
sg1133
I1133
sg1168
I1168
sg1506
I1506
sg690
I690
sg1705
I1705
sg1499
I1499
sg1703
I1703
sg776
I776
sg1516
I1516
sg1662
I1662
sg1351
I1351
sg486
I486
sg1545
I1545
sg12
I10
sg523
I523
sg1395
I1395
sg827
I827
sg396
I396
sg1352
I1352
sg821
I821
sg1328
I1328
sg1663
I1663
sg676
I676
sg5
I3
sg1082
I1082
sg775
I775
sg1693
I1693
sg1764
I1764
sg1245
I1245
sg1184
I1184
sg1500
I1500
sg181
I181
sg1442
I1442
sg1675
I1675
sg1276
I1276
sg1239
I1239
sg1511
I1511
sg153
I152
sg1152
I1152
sg1316
I1316
sg1758
I1758
sg1472
I1472
sg1322
I1322
sg496
I496
sg241
I241
sg542
I542
sg697
I697
sg1872
I1872
sg1099
I1099
sg1227
I1227
sg1737
I1737
sg243
I243
sg1115
I1115
sg99
I98
sg1582
I1582
sg47
I45
sg1317
I1317
sg1416
I1416
sg573
I573
sg666
I666
sg1456
I1456
sg1572
I1572
sg517
I517
sg657
I657
sg782
I782
sg1179
I1179
sg790
I790
sg1383
I1383
sg1884
I1884
sg1858
I1858
sg378
I378
sg1127
I1127
sg858
I858
sg1297
I1297
sg1420
I1420
sg599
I599
sg1018
I1018
sg781
I781
sg661
I661
sg893
I893
sg959
I959
sg931
I931
sg960
I960
sg347
I347
sg1787
I1787
sg1372
I1372
sg563
I563
sg265
I265
sg728
I728
sg1195
I1195
sg825
I825
sg818
I818
sg84
I83
sg1345
I1345
sg507
I507
sg275
I275
sg910
I910
sg1575
I1575
sg1071
I1071
sg1092
I1092
sg1391
I1391
sg1108
I1108
sg1188
I1188
sg192
I192
sg699
I699
sg1890
I1890
sg154
I154
sg370
I370
sg723
I723
sg816
I816
sg1344
I1344
sg1509
I1509
sg765
I765
sg1812
I1812
sg250
I250
sg1727
I1727
sg1608
I1608
sg949
I949
sg1596
I1596
sg187
I187
sg188
I188
sg749
I749
sg185
I185
sg86
I85
sg1438
I1438
sg1653
I1653
sg964
I964
sg355
I355
sg1075
I1075
sg1255
I1255
sg1326
I1326
sg1254
I1254
sg1136
I1136
sg1076
I1076
sg551
I551
sg354
I354
sg787
I787
sg975
I975
sg1164
I1164
sg1750
I1750
sg346
I346
sg452
I452
sg1194
I1194
sg1775
I1775
sg593
I593
sg592
I592
sg510
I510
sg1501
I1501
sg323
I323
sg1634
I1634
sg528
I528
sg1871
I1871
sg1088
I1088
sg1124
I1124
sg575
I575
sg329
I329
sg161
I161
sg160
I160
sg857
I857
sg167
I167
sg703
I703
sg403
I403
sg1610
I1610
sg51
I49
sg117
I116
sg1674
I1674
sg942
I942
st.